target datalayout = "e-m:e-p270:32:32-p271:32:32-p272:64:64-i64:64-i128:128-f80:128-n8:16:32:64-S128"
target triple = "x86_64-pc-linux-gnu"

%struct.expert_field = type { i32, i32 }
%struct._packet_info = type { ptr, ptr, i32, i32, %struct.nstime_t, %struct.nstime_t, %struct.nstime_t, i8, ptr, ptr, ptr, ptr, %struct._address, %struct._address, %struct._address, %struct._address, %struct._address, %struct._address, i32, ptr, i8, [3 x i8], %struct.anon, i32, i32, i32, i32, ptr, i8, ptr, ptr, i16, i16, i32, i32, i16, i32, i32, ptr, ptr, ptr, i8, i8, i16, i16, i16, i32, i16, i16, ptr, ptr, ptr, ptr, ptr, i32, i32 }
%struct.nstime_t = type { i64, i32 }
%struct._address = type { i32, i32, ptr, ptr }
%struct.anon = type { i8, [3 x i8] }

@hf_olsr_ansn = internal global i32 0, align 4
@hf_olsr_neighbor = internal global i32 0, align 4
@hf_olsr_neighbor_addr = internal global i32 0, align 4
@hf_olsr_neighbor6_addr = internal global i32 0, align 4
@hf_olsrorg_lq = internal global i32 0, align 4
@hf_olsrorg_nlq = internal global i32 0, align 4
@ett_olsr_message_neigh = internal global i32 0, align 4
@ei_olsr_not_enough_bytes = internal global %struct.expert_field zeroinitializer, align 4
@.str.136 = private unnamed_addr constant [11 x i8] c"%s (%d/%d)\00", align 1
@.str.137 = private unnamed_addr constant [36 x i8] c"Not enough bytes for Olsr.org LQ-TC\00", align 1
@.str.138 = private unnamed_addr constant [47 x i8] c"Not enough bytes for last entry (need 8 bytes)\00", align 1
@.str.139 = private unnamed_addr constant [48 x i8] c"Not enough bytes for last entry (need 20 bytes)\00", align 1

; Function Attrs: null_pointer_is_valid sspstrong uwtable
define internal i32 @dissect_olsrorg_lq_tc(ptr noundef %0, ptr noundef %1, ptr noundef %2, i32 noundef %3, i32 noundef %4) #0 {
  %6 = alloca i32, align 4
  %7 = alloca ptr, align 8
  %8 = alloca ptr, align 8
  %9 = alloca ptr, align 8
  %10 = alloca i32, align 4
  %11 = alloca i32, align 4
  %12 = alloca ptr, align 8
  %13 = alloca ptr, align 8
  %14 = alloca i8, align 1
  %15 = alloca i8, align 1
  %16 = alloca i32, align 4
  store ptr %0, ptr %7, align 8
  store ptr %1, ptr %8, align 8
  store ptr %2, ptr %9, align 8
  store i32 %3, ptr %10, align 4
  store i32 %4, ptr %11, align 4
  %17 = load i32, ptr %11, align 4
  %18 = load i32, ptr %10, align 4
  %19 = sub i32 %17, %18
  %20 = icmp slt i32 %19, 4
  br i1 %20, label %21, label %31

21:                                               ; preds = %5
  %22 = load ptr, ptr %9, align 8
  %23 = load ptr, ptr %8, align 8
  %24 = load ptr, ptr %7, align 8
  %25 = load i32, ptr %10, align 4
  %26 = load i32, ptr %11, align 4
  %27 = load i32, ptr %10, align 4
  %28 = sub i32 %26, %27
  %29 = call ptr (ptr, ptr, ptr, ptr, i32, i32, ptr, ...) @proto_tree_add_expert_format(ptr noundef %22, ptr noundef %23, ptr noundef @ei_olsr_not_enough_bytes, ptr noundef %24, i32 noundef %25, i32 noundef %28, ptr noundef @.str.137)
  %30 = load i32, ptr %11, align 4
  store i32 %30, ptr %6, align 4
  br label %175

31:                                               ; preds = %5
  %32 = load ptr, ptr %9, align 8
  %33 = load i32, ptr @hf_olsr_ansn, align 4
  %34 = load ptr, ptr %7, align 8
  %35 = load i32, ptr %10, align 4
  %36 = call ptr @proto_tree_add_item(ptr noundef %32, i32 noundef %33, ptr noundef %34, i32 noundef %35, i32 noundef 2, i32 noundef 0)
  %37 = load i32, ptr %10, align 4
  %38 = add i32 %37, 4
  store i32 %38, ptr %10, align 4
  br label %39

39:                                               ; preds = %172, %31
  %40 = load i32, ptr %10, align 4
  %41 = load i32, ptr %11, align 4
  %42 = icmp slt i32 %40, %41
  br i1 %42, label %43, label %173

43:                                               ; preds = %39
  call void @llvm.lifetime.start.p0(i64 8, ptr %12) #7
  call void @llvm.lifetime.start.p0(i64 8, ptr %13) #7
  call void @llvm.lifetime.start.p0(i64 1, ptr %14) #7
  call void @llvm.lifetime.start.p0(i64 1, ptr %15) #7
  %44 = load ptr, ptr %8, align 8
  %45 = getelementptr inbounds nuw %struct._packet_info, ptr %44, i32 0, i32 16
  %46 = getelementptr inbounds nuw %struct._address, ptr %45, i32 0, i32 0
  %47 = load i32, ptr %46, align 8
  %48 = icmp eq i32 %47, 2
  br i1 %48, label %49, label %98

49:                                               ; preds = %43
  %50 = load i32, ptr %11, align 4
  %51 = load i32, ptr %10, align 4
  %52 = sub i32 %50, %51
  %53 = icmp slt i32 %52, 8
  br i1 %53, label %54, label %64

54:                                               ; preds = %49
  %55 = load ptr, ptr %9, align 8
  %56 = load ptr, ptr %8, align 8
  %57 = load ptr, ptr %7, align 8
  %58 = load i32, ptr %10, align 4
  %59 = load i32, ptr %11, align 4
  %60 = load i32, ptr %10, align 4
  %61 = sub i32 %59, %60
  %62 = call ptr (ptr, ptr, ptr, ptr, i32, i32, ptr, ...) @proto_tree_add_expert_format(ptr noundef %55, ptr noundef %56, ptr noundef @ei_olsr_not_enough_bytes, ptr noundef %57, i32 noundef %58, i32 noundef %61, ptr noundef @.str.138)
  %63 = load i32, ptr %11, align 4
  store i32 %63, ptr %6, align 4
  store i32 1, ptr %16, align 4
  br label %170

64:                                               ; preds = %49
  %65 = load ptr, ptr %7, align 8
  %66 = load i32, ptr %10, align 4
  %67 = add i32 %66, 4
  %68 = call zeroext i8 @tvb_get_uint8(ptr noundef %65, i32 noundef %67)
  store i8 %68, ptr %14, align 1
  %69 = load ptr, ptr %7, align 8
  %70 = load i32, ptr %10, align 4
  %71 = add i32 %70, 5
  %72 = call zeroext i8 @tvb_get_uint8(ptr noundef %69, i32 noundef %71)
  store i8 %72, ptr %15, align 1
  %73 = load ptr, ptr %9, align 8
  %74 = load i32, ptr @hf_olsr_neighbor, align 4
  %75 = load ptr, ptr %7, align 8
  %76 = load i32, ptr %10, align 4
  %77 = load ptr, ptr %8, align 8
  %78 = getelementptr inbounds nuw %struct._packet_info, ptr %77, i32 0, i32 51
  %79 = load ptr, ptr %78, align 8
  %80 = load ptr, ptr %7, align 8
  %81 = load i32, ptr %10, align 4
  %82 = call ptr @tvb_address_to_str(ptr noundef %79, ptr noundef %80, i32 noundef 2, i32 noundef %81)
  %83 = load i8, ptr %14, align 1
  %84 = zext i8 %83 to i32
  %85 = load i8, ptr %15, align 1
  %86 = zext i8 %85 to i32
  %87 = call ptr (ptr, i32, ptr, i32, i32, ptr, ptr, ...) @proto_tree_add_bytes_format_value(ptr noundef %73, i32 noundef %74, ptr noundef %75, i32 noundef %76, i32 noundef 8, ptr noundef null, ptr noundef @.str.136, ptr noundef %82, i32 noundef %84, i32 noundef %86)
  store ptr %87, ptr %12, align 8
  %88 = load ptr, ptr %12, align 8
  %89 = load i32, ptr @ett_olsr_message_neigh, align 4
  %90 = call ptr @proto_item_add_subtree(ptr noundef %88, i32 noundef %89)
  store ptr %90, ptr %13, align 8
  %91 = load ptr, ptr %13, align 8
  %92 = load i32, ptr @hf_olsr_neighbor_addr, align 4
  %93 = load ptr, ptr %7, align 8
  %94 = load i32, ptr %10, align 4
  %95 = call ptr @proto_tree_add_item(ptr noundef %91, i32 noundef %92, ptr noundef %93, i32 noundef %94, i32 noundef 4, i32 noundef 0)
  %96 = load i32, ptr %10, align 4
  %97 = add i32 %96, 4
  store i32 %97, ptr %10, align 4
  br label %155

98:                                               ; preds = %43
  %99 = load ptr, ptr %8, align 8
  %100 = getelementptr inbounds nuw %struct._packet_info, ptr %99, i32 0, i32 16
  %101 = getelementptr inbounds nuw %struct._address, ptr %100, i32 0, i32 0
  %102 = load i32, ptr %101, align 8
  %103 = icmp eq i32 %102, 3
  br i1 %103, label %104, label %153

104:                                              ; preds = %98
  %105 = load i32, ptr %11, align 4
  %106 = load i32, ptr %10, align 4
  %107 = sub i32 %105, %106
  %108 = icmp slt i32 %107, 20
  br i1 %108, label %109, label %119

109:                                              ; preds = %104
  %110 = load ptr, ptr %9, align 8
  %111 = load ptr, ptr %8, align 8
  %112 = load ptr, ptr %7, align 8
  %113 = load i32, ptr %10, align 4
  %114 = load i32, ptr %11, align 4
  %115 = load i32, ptr %10, align 4
  %116 = sub i32 %114, %115
  %117 = call ptr (ptr, ptr, ptr, ptr, i32, i32, ptr, ...) @proto_tree_add_expert_format(ptr noundef %110, ptr noundef %111, ptr noundef @ei_olsr_not_enough_bytes, ptr noundef %112, i32 noundef %113, i32 noundef %116, ptr noundef @.str.139)
  %118 = load i32, ptr %11, align 4
  store i32 %118, ptr %6, align 4
  store i32 1, ptr %16, align 4
  br label %170

119:                                              ; preds = %104
  %120 = load ptr, ptr %7, align 8
  %121 = load i32, ptr %10, align 4
  %122 = add i32 %121, 16
  %123 = call zeroext i8 @tvb_get_uint8(ptr noundef %120, i32 noundef %122)
  store i8 %123, ptr %14, align 1
  %124 = load ptr, ptr %7, align 8
  %125 = load i32, ptr %10, align 4
  %126 = add i32 %125, 17
  %127 = call zeroext i8 @tvb_get_uint8(ptr noundef %124, i32 noundef %126)
  store i8 %127, ptr %15, align 1
  %128 = load ptr, ptr %9, align 8
  %129 = load i32, ptr @hf_olsr_neighbor, align 4
  %130 = load ptr, ptr %7, align 8
  %131 = load i32, ptr %10, align 4
  %132 = load ptr, ptr %8, align 8
  %133 = getelementptr inbounds nuw %struct._packet_info, ptr %132, i32 0, i32 51
  %134 = load ptr, ptr %133, align 8
  %135 = load ptr, ptr %7, align 8
  %136 = load i32, ptr %10, align 4
  %137 = call ptr @tvb_address_to_str(ptr noundef %134, ptr noundef %135, i32 noundef 3, i32 noundef %136)
  %138 = load i8, ptr %14, align 1
  %139 = zext i8 %138 to i32
  %140 = load i8, ptr %15, align 1
  %141 = zext i8 %140 to i32
  %142 = call ptr (ptr, i32, ptr, i32, i32, ptr, ptr, ...) @proto_tree_add_bytes_format_value(ptr noundef %128, i32 noundef %129, ptr noundef %130, i32 noundef %131, i32 noundef 20, ptr noundef null, ptr noundef @.str.136, ptr noundef %137, i32 noundef %139, i32 noundef %141)
  store ptr %142, ptr %12, align 8
  %143 = load ptr, ptr %12, align 8
  %144 = load i32, ptr @ett_olsr_message_neigh, align 4
  %145 = call ptr @proto_item_add_subtree(ptr noundef %143, i32 noundef %144)
  store ptr %145, ptr %13, align 8
  %146 = load ptr, ptr %13, align 8
  %147 = load i32, ptr @hf_olsr_neighbor6_addr, align 4
  %148 = load ptr, ptr %7, align 8
  %149 = load i32, ptr %10, align 4
  %150 = call ptr @proto_tree_add_item(ptr noundef %146, i32 noundef %147, ptr noundef %148, i32 noundef %149, i32 noundef 16, i32 noundef 0)
  %151 = load i32, ptr %10, align 4
  %152 = add i32 %151, 16
  store i32 %152, ptr %10, align 4
  br label %154

153:                                              ; preds = %98
  store i32 3, ptr %16, align 4
  br label %170

154:                                              ; preds = %119
  br label %155

155:                                              ; preds = %154, %64
  %156 = load ptr, ptr %13, align 8
  %157 = load i32, ptr @hf_olsrorg_lq, align 4
  %158 = load ptr, ptr %7, align 8
  %159 = load i32, ptr %10, align 4
  %160 = add i32 %159, 1
  store i32 %160, ptr %10, align 4
  %161 = call ptr @proto_tree_add_item(ptr noundef %156, i32 noundef %157, ptr noundef %158, i32 noundef %159, i32 noundef 1, i32 noundef 0)
  %162 = load ptr, ptr %13, align 8
  %163 = load i32, ptr @hf_olsrorg_nlq, align 4
  %164 = load ptr, ptr %7, align 8
  %165 = load i32, ptr %10, align 4
  %166 = add i32 %165, 1
  store i32 %166, ptr %10, align 4
  %167 = call ptr @proto_tree_add_item(ptr noundef %162, i32 noundef %163, ptr noundef %164, i32 noundef %165, i32 noundef 1, i32 noundef 0)
  %168 = load i32, ptr %10, align 4
  %169 = add i32 %168, 2
  store i32 %169, ptr %10, align 4
  store i32 0, ptr %16, align 4
  br label %170

170:                                              ; preds = %155, %153, %109, %54
  call void @llvm.lifetime.end.p0(i64 1, ptr %15) #7
  call void @llvm.lifetime.end.p0(i64 1, ptr %14) #7
  call void @llvm.lifetime.end.p0(i64 8, ptr %13) #7
  call void @llvm.lifetime.end.p0(i64 8, ptr %12) #7
  %171 = load i32, ptr %16, align 4
  switch i32 %171, label %177 [
    i32 0, label %172
    i32 1, label %175
    i32 3, label %173
  ]

172:                                              ; preds = %170
  br label %39, !llvm.loop !17

173:                                              ; preds = %170, %39
  %174 = load i32, ptr %11, align 4
  store i32 %174, ptr %6, align 4
  br label %175

175:                                              ; preds = %173, %170, %21
  %176 = load i32, ptr %6, align 4
  ret i32 %176

177:                                              ; preds = %170
  unreachable
}