; Function Attrs: null_pointer_is_valid sspstrong uwtable
define internal fastcc noundef range(i32 17, 65536) i32 @dissect_olsrorg_lq_tc(ptr noundef %0, ptr noundef %1, ptr noundef %2, i32 noundef range(i32 16, 65535) %3, i32 noundef returned range(i32 17, 65536) %4) unnamed_addr #0 {
  %6 = sub nsw i32 %4, %3
  %7 = icmp slt i32 %6, 4
  br i1 %7, label %8, label %10

8:                                                ; preds = %5
  %9 = tail call ptr (ptr, ptr, ptr, ptr, i32, i32, ptr, ...) @proto_tree_add_expert_format(ptr noundef %2, ptr noundef %1, ptr noundef nonnull @ei_olsr_not_enough_bytes, ptr noundef %0, i32 noundef %3, i32 noundef %6, ptr noundef nonnull @.str.137)
  br label %.thread91

10:                                               ; preds = %5
  %11 = load i32, ptr @hf_olsr_ansn, align 4
  %12 = tail call ptr @proto_tree_add_item(ptr noundef %2, i32 noundef %11, ptr noundef %0, i32 noundef %3, i32 noundef 2, i32 noundef 0)
  %.08098 = add nuw nsw i32 %3, 4
  %13 = icmp samesign ult i32 %.08098, %4
  br i1 %13, label %.lr.ph, label %.thread91

.lr.ph:                                           ; preds = %10
  %14 = getelementptr inbounds nuw i8, ptr %1, i64 208
  %15 = getelementptr inbounds nuw i8, ptr %1, i64 408
  br label %16

16:                                               ; preds = %.lr.ph, %28
  %.080100 = phi i32 [ %.08098, %.lr.ph ], [ %.080, %28 ]
  %.080.in99 = phi i32 [ %3, %.lr.ph ], [ %29, %28 ]
  %17 = load i32, ptr %14, align 8
  switch i32 %17, label %.thread91 [
    i32 2, label %18
    i32 3, label %23
  ]

18:                                               ; preds = %16
  %19 = sub i32 %4, %.080100
  %20 = icmp slt i32 %19, 8
  br i1 %20, label %21, label %28

21:                                               ; preds = %18
  %22 = tail call ptr (ptr, ptr, ptr, ptr, i32, i32, ptr, ...) @proto_tree_add_expert_format(ptr noundef %2, ptr noundef %1, ptr noundef nonnull @ei_olsr_not_enough_bytes, ptr noundef %0, i32 noundef %.080100, i32 noundef %19, ptr noundef nonnull @.str.138)
  br label %.thread91

23:                                               ; preds = %16
  %24 = sub i32 %4, %.080100
  %25 = icmp slt i32 %24, 20
  br i1 %25, label %26, label %28

26:                                               ; preds = %23
  %27 = tail call ptr (ptr, ptr, ptr, ptr, i32, i32, ptr, ...) @proto_tree_add_expert_format(ptr noundef %2, ptr noundef %1, ptr noundef nonnull @ei_olsr_not_enough_bytes, ptr noundef %0, i32 noundef %.080100, i32 noundef %24, ptr noundef nonnull @.str.139)
  br label %.thread91

28:                                               ; preds = %23, %18
  %.sink121 = phi i32 [ 8, %18 ], [ 20, %23 ]
  %.sink120 = phi i32 [ 9, %18 ], [ 21, %23 ]
  %hf_olsr_neighbor_addr.sink = phi ptr [ @hf_olsr_neighbor_addr, %18 ], [ @hf_olsr_neighbor6_addr, %23 ]
  %.sink109 = phi i32 [ 4, %18 ], [ 16, %23 ]
  %29 = add i32 %.080.in99, %.sink121
  %30 = tail call zeroext i8 @tvb_get_uint8(ptr noundef %0, i32 noundef %29)
  %31 = add i32 %.080.in99, %.sink120
  %32 = tail call zeroext i8 @tvb_get_uint8(ptr noundef %0, i32 noundef %31)
  %33 = load i32, ptr @hf_olsr_neighbor, align 4
  %34 = load ptr, ptr %15, align 8
  %35 = tail call ptr @tvb_address_to_str(ptr noundef %34, ptr noundef %0, i32 noundef %17, i32 noundef %.080100)
  %36 = zext i8 %30 to i32
  %37 = zext i8 %32 to i32
  %38 = tail call ptr (ptr, i32, ptr, i32, i32, ptr, ptr, ...) @proto_tree_add_bytes_format_value(ptr noundef %2, i32 noundef %33, ptr noundef %0, i32 noundef %.080100, i32 noundef %.sink121, ptr noundef null, ptr noundef nonnull @.str.136, ptr noundef %35, i32 noundef %36, i32 noundef %37)
  %39 = load i32, ptr @ett_olsr_message_neigh, align 4
  %40 = tail call ptr @proto_item_add_subtree(ptr noundef %38, i32 noundef %39)
  %41 = load i32, ptr %hf_olsr_neighbor_addr.sink, align 4
  %42 = tail call ptr @proto_tree_add_item(ptr noundef %40, i32 noundef %41, ptr noundef %0, i32 noundef %.080100, i32 noundef %.sink109, i32 noundef 0)
  %43 = load i32, ptr @hf_olsrorg_lq, align 4
  %44 = add i32 %29, 1
  %45 = tail call ptr @proto_tree_add_item(ptr noundef %40, i32 noundef %43, ptr noundef %0, i32 noundef %29, i32 noundef 1, i32 noundef 0)
  %46 = load i32, ptr @hf_olsrorg_nlq, align 4
  %47 = tail call ptr @proto_tree_add_item(ptr noundef %40, i32 noundef %46, ptr noundef %0, i32 noundef %44, i32 noundef 1, i32 noundef 0)
  %.080 = add i32 %29, 4
  %48 = icmp slt i32 %.080, %4
  br i1 %48, label %16, label %.thread91

.thread91:                                        ; preds = %28, %16, %10, %26, %21, %8
  ret i32 %4
}